target datalayout = "e-m:e-p270:32:32-p271:32:32-p272:64:64-i64:64-i128:128-f80:128-n8:16:32:64-S128"
target triple = "x86_64-pc-linux-gnu"

%struct.SDL_AtomicInt = type { i32 }
%struct.SDL_HIDAPI_Device = type { ptr, ptr, ptr, ptr, i16, i16, i16, ptr, %struct.SDL_GUID, i32, i32, i32, i32, i16, i16, i8, i32, i32, i32, ptr, ptr, ptr, ptr, %struct.SDL_AtomicInt, i32, ptr, i8, i8, i8, ptr, i32, ptr, ptr }
%struct.SDL_GUID = type { [16 x i8] }

@SDL_HIDAPI_devices = internal global ptr null, align 8

; Function Attrs: nounwind uwtable
define hidden zeroext i1 @HIDAPI_HasConnectedUSBDevice(ptr noundef %0) #0 {
  %2 = alloca i1, align 1
  %3 = alloca ptr, align 8
  %4 = alloca ptr, align 8
  %5 = alloca i32, align 4
  store ptr %0, ptr %3, align 8
  call void @llvm.lifetime.start.p0(i64 8, ptr %4) #7
  call void @SDL_AssertJoysticksLocked()
  %6 = load ptr, ptr %3, align 8
  %7 = icmp ne ptr %6, null
  br i1 %7, label %9, label %8

8:                                                ; preds = %1
  store i1 false, ptr %2, align 1
  store i32 1, ptr %5, align 4
  br label %50

9:                                                ; preds = %1
  %10 = load ptr, ptr @SDL_HIDAPI_devices, align 8
  store ptr %10, ptr %4, align 8
  br label %11

11:                                               ; preds = %45, %9
  %12 = load ptr, ptr %4, align 8
  %13 = icmp ne ptr %12, null
  br i1 %13, label %14, label %49

14:                                               ; preds = %11
  %15 = load ptr, ptr %4, align 8
  %16 = getelementptr inbounds nuw %struct.SDL_HIDAPI_Device, ptr %15, i32 0, i32 19
  %17 = load ptr, ptr %16, align 8
  %18 = icmp ne ptr %17, null
  br i1 %18, label %19, label %24

19:                                               ; preds = %14
  %20 = load ptr, ptr %4, align 8
  %21 = getelementptr inbounds nuw %struct.SDL_HIDAPI_Device, ptr %20, i32 0, i32 28
  %22 = load i8, ptr %21, align 2, !range !6, !noundef !7
  %23 = trunc i8 %22 to i1
  br i1 %23, label %24, label %25

24:                                               ; preds = %19, %14
  br label %45

25:                                               ; preds = %19
  %26 = load ptr, ptr %4, align 8
  %27 = getelementptr inbounds nuw %struct.SDL_HIDAPI_Device, ptr %26, i32 0, i32 15
  %28 = load i8, ptr %27, align 4, !range !6, !noundef !7
  %29 = trunc i8 %28 to i1
  br i1 %29, label %30, label %31

30:                                               ; preds = %25
  br label %45

31:                                               ; preds = %25
  %32 = load ptr, ptr %4, align 8
  %33 = getelementptr inbounds nuw %struct.SDL_HIDAPI_Device, ptr %32, i32 0, i32 7
  %34 = load ptr, ptr %33, align 8
  %35 = icmp ne ptr %34, null
  br i1 %35, label %36, label %44

36:                                               ; preds = %31
  %37 = load ptr, ptr %3, align 8
  %38 = load ptr, ptr %4, align 8
  %39 = getelementptr inbounds nuw %struct.SDL_HIDAPI_Device, ptr %38, i32 0, i32 7
  %40 = load ptr, ptr %39, align 8
  %41 = call i32 @SDL_strcmp_REAL(ptr noundef %37, ptr noundef %40)
  %42 = icmp eq i32 %41, 0
  br i1 %42, label %43, label %44

43:                                               ; preds = %36
  store i1 true, ptr %2, align 1
  store i32 1, ptr %5, align 4
  br label %50

44:                                               ; preds = %36, %31
  br label %45

45:                                               ; preds = %44, %30, %24
  %46 = load ptr, ptr %4, align 8
  %47 = getelementptr inbounds nuw %struct.SDL_HIDAPI_Device, ptr %46, i32 0, i32 32
  %48 = load ptr, ptr %47, align 8
  store ptr %48, ptr %4, align 8
  br label %11, !llvm.loop !8

49:                                               ; preds = %11
  store i1 false, ptr %2, align 1
  store i32 1, ptr %5, align 4
  br label %50

50:                                               ; preds = %49, %43, %8
  call void @llvm.lifetime.end.p0(i64 8, ptr %4) #7
  %51 = load i1, ptr %2, align 1
  ret i1 %51
}