; Function Attrs: nounwind uwtable
define hidden noundef zeroext i1 @HIDAPI_HasConnectedUSBDevice(ptr noundef %0) local_unnamed_addr #0 {
  tail call void @SDL_AssertJoysticksLocked() #9
  %.not = icmp eq ptr %0, null
  %.016 = load ptr, ptr @SDL_HIDAPI_devices, align 8
  %.not1317 = icmp eq ptr %.016, null
  %or.cond = select i1 %.not, i1 true, i1 %.not1317
  br i1 %or.cond, label %.loopexit, label %.lr.ph

.lr.ph:                                           ; preds = %1, %18
  %.018 = phi ptr [ %.0, %18 ], [ %.016, %1 ]
  %2 = getelementptr inbounds nuw i8, ptr %.018, i64 104
  %3 = load ptr, ptr %2, align 8
  %.not14 = icmp eq ptr %3, null
  br i1 %.not14, label %18, label %4

4:                                                ; preds = %.lr.ph
  %5 = getelementptr inbounds nuw i8, ptr %.018, i64 154
  %6 = load i8, ptr %5, align 2, !range !6, !noundef !7
  %7 = trunc nuw i8 %6 to i1
  br i1 %7, label %18, label %8

8:                                                ; preds = %4
  %9 = getelementptr inbounds nuw i8, ptr %.018, i64 84
  %10 = load i8, ptr %9, align 4, !range !6, !noundef !7
  %11 = trunc nuw i8 %10 to i1
  br i1 %11, label %18, label %12

12:                                               ; preds = %8
  %13 = getelementptr inbounds nuw i8, ptr %.018, i64 40
  %14 = load ptr, ptr %13, align 8
  %.not15 = icmp eq ptr %14, null
  br i1 %.not15, label %18, label %15

15:                                               ; preds = %12
  %16 = tail call i32 @SDL_strcmp_REAL(ptr noundef nonnull %0, ptr noundef nonnull %14) #9
  %17 = icmp eq i32 %16, 0
  br i1 %17, label %.loopexit, label %18

18:                                               ; preds = %12, %15, %8, %.lr.ph, %4
  %19 = getelementptr inbounds nuw i8, ptr %.018, i64 184
  %.0 = load ptr, ptr %19, align 8
  %.not13 = icmp eq ptr %.0, null
  br i1 %.not13, label %.loopexit, label %.lr.ph, !llvm.loop !8

.loopexit:                                        ; preds = %15, %18, %1
  %.010 = phi i1 [ false, %1 ], [ true, %15 ], [ false, %18 ]
  ret i1 %.010
}